0000              1   ;--------------------------------------------------------
0000              2   ; File Created by C51
0000              3   ; Version 1.0.0 #1069 (Dec 11 2012) (MSVC)
0000              4   ; This file was generated Thu Mar 26 13:56:07 2015
0000              5   ;--------------------------------------------------------
                  5   $name Reciever
                  6   $optc51 --model-small
0000              8            R_DSEG    segment data
0000              9            R_CSEG    segment code
0000             10            R_BSEG    segment bit
0000             11            R_XSEG    segment xdata
0000             12            R_PSEG    segment xdata
0000             13            R_ISEG    segment idata
0000             14            R_OSEG    segment data overlay
0000             15            BIT_BANK  segment data overlay
0000             16            R_HOME    segment code
0000             17            R_GSINIT  segment code
0000             18            R_IXSEG   segment xdata
0000             19            R_CONST   segment code
0000             20            R_XINIT   segment code
0000             21            R_DINIT   segment code
0000             22   
0000             23   ;--------------------------------------------------------
0000             24   ; Public variables in this module
0000             25   ;--------------------------------------------------------
0000             26            public _main
0000             27            public _Follow
0000             28            public _Read_Distance
0000             29            public _Clear_Pins
0000             30            public _Right
0000             31            public _Left
0000             32            public _Backwards
0000             33            public _Forward
0000             34            public _SpinR
0000             35            public _SpinL
0000             36            public _TIMER0_Init
0000             37            public _UART0_Init
0000             38            public _SYSCLK_Init
0000             39            public _PORT_Init
0000             40            public _rx_byte
0000             41            public _wait_one_and_half_bit_time
0000             42            public _wait_bit_time
0000             43            public _Timer3us
0000             44            public _change_Dist
0000             45            public __c51_external_startup
0000             46            public _OrientFlag
0000             47            public _Dist
0000             48            public _command
0000             49            public _overflow_count
0000             50            public _waitms
0000             51            public _GetADC
0000             52   ;--------------------------------------------------------
0000             53   ; Special Function Registers
0000             54   ;--------------------------------------------------------
0000             55   _P0             DATA 0x80
0000             56   _SP             DATA 0x81
0000             57   _DPL            DATA 0x82
0000             58   _DPH            DATA 0x83
0000             59   _EMI0TC         DATA 0x84
0000             60   _EMI0CF         DATA 0x85
0000             61   _OSCLCN         DATA 0x86
0000             62   _PCON           DATA 0x87
0000             63   _TCON           DATA 0x88
0000             64   _TMOD           DATA 0x89
0000             65   _TL0            DATA 0x8a
0000             66   _TL1            DATA 0x8b
0000             67   _TH0            DATA 0x8c
0000             68   _TH1            DATA 0x8d
0000             69   _CKCON          DATA 0x8e
0000             70   _PSCTL          DATA 0x8f
0000             71   _P1             DATA 0x90
0000             72   _TMR3CN         DATA 0x91
0000             73   _TMR4CN         DATA 0x91
0000             74   _TMR3RLL        DATA 0x92
0000             75   _TMR4RLL        DATA 0x92
0000             76   _TMR3RLH        DATA 0x93
0000             77   _TMR4RLH        DATA 0x93
0000             78   _TMR3L          DATA 0x94
0000             79   _TMR4L          DATA 0x94
0000             80   _TMR3H          DATA 0x95
0000             81   _TMR4H          DATA 0x95
0000             82   _USB0ADR        DATA 0x96
0000             83   _USB0DAT        DATA 0x97
0000             84   _SCON           DATA 0x98
0000             85   _SCON0          DATA 0x98
0000             86   _SBUF           DATA 0x99
0000             87   _SBUF0          DATA 0x99
0000             88   _CPT1CN         DATA 0x9a
0000             89   _CPT0CN         DATA 0x9b
0000             90   _CPT1MD         DATA 0x9c
0000             91   _CPT0MD         DATA 0x9d
0000             92   _CPT1MX         DATA 0x9e
0000             93   _CPT0MX         DATA 0x9f
0000             94   _P2             DATA 0xa0
0000             95   _SPI0CFG        DATA 0xa1
0000             96   _SPI0CKR        DATA 0xa2
0000             97   _SPI0DAT        DATA 0xa3
0000             98   _P0MDOUT        DATA 0xa4
0000             99   _P1MDOUT        DATA 0xa5
0000            100   _P2MDOUT        DATA 0xa6
0000            101   _P3MDOUT        DATA 0xa7
0000            102   _IE             DATA 0xa8
0000            103   _CLKSEL         DATA 0xa9
0000            104   _EMI0CN         DATA 0xaa
0000            105   __XPAGE         DATA 0xaa
0000            106   _SBCON1         DATA 0xac
0000            107   _P4MDOUT        DATA 0xae
0000            108   _PFE0CN         DATA 0xaf
0000            109   _P3             DATA 0xb0
0000            110   _OSCXCN         DATA 0xb1
0000            111   _OSCICN         DATA 0xb2
0000            112   _OSCICL         DATA 0xb3
0000            113   _SBRLL1         DATA 0xb4
0000            114   _SBRLH1         DATA 0xb5
0000            115   _FLSCL          DATA 0xb6
0000            116   _FLKEY          DATA 0xb7
0000            117   _IP             DATA 0xb8
0000            118   _CLKMUL         DATA 0xb9
0000            119   _SMBTC          DATA 0xb9
0000            120   _AMX0N          DATA 0xba
0000            121   _AMX0P          DATA 0xbb
0000            122   _ADC0CF         DATA 0xbc
0000            123   _ADC0L          DATA 0xbd
0000            124   _ADC0H          DATA 0xbe
0000            125   _SFRPAGE        DATA 0xbf
0000            126   _SMB0CN         DATA 0xc0
0000            127   _SMB1CN         DATA 0xc0
0000            128   _SMB0CF         DATA 0xc1
0000            129   _SMB1CF         DATA 0xc1
0000            130   _SMB0DAT        DATA 0xc2
0000            131   _SMB1DAT        DATA 0xc2
0000            132   _ADC0GTL        DATA 0xc3
0000            133   _ADC0GTH        DATA 0xc4
0000            134   _ADC0LTL        DATA 0xc5
0000            135   _ADC0LTH        DATA 0xc6
0000            136   _P4             DATA 0xc7
0000            137   _TMR2CN         DATA 0xc8
0000            138   _TMR5CN         DATA 0xc8
0000            139   _REG01CN        DATA 0xc9
0000            140   _TMR2RLL        DATA 0xca
0000            141   _TMR5RLL        DATA 0xca
0000            142   _TMR2RLH        DATA 0xcb
0000            143   _TMR5RLH        DATA 0xcb
0000            144   _TMR2L          DATA 0xcc
0000            145   _TMR5L          DATA 0xcc
0000            146   _TMR2H          DATA 0xcd
0000            147   _TMR5H          DATA 0xcd
0000            148   _SMB0ADM        DATA 0xce
0000            149   _SMB1ADM        DATA 0xce
0000            150   _SMB0ADR        DATA 0xcf
0000            151   _SMB1ADR        DATA 0xcf
0000            152   _PSW            DATA 0xd0
0000            153   _REF0CN         DATA 0xd1
0000            154   _SCON1          DATA 0xd2
0000            155   _SBUF1          DATA 0xd3
0000            156   _P0SKIP         DATA 0xd4
0000            157   _P1SKIP         DATA 0xd5
0000            158   _P2SKIP         DATA 0xd6
0000            159   _USB0XCN        DATA 0xd7
0000            160   _PCA0CN         DATA 0xd8
0000            161   _PCA0MD         DATA 0xd9
0000            162   _PCA0CPM0       DATA 0xda
0000            163   _PCA0CPM1       DATA 0xdb
0000            164   _PCA0CPM2       DATA 0xdc
0000            165   _PCA0CPM3       DATA 0xdd
0000            166   _PCA0CPM4       DATA 0xde
0000            167   _P3SKIP         DATA 0xdf
0000            168   _ACC            DATA 0xe0
0000            169   _XBR0           DATA 0xe1
0000            170   _XBR1           DATA 0xe2
0000            171   _XBR2           DATA 0xe3
0000            172   _IT01CF         DATA 0xe4
0000            173   _CKCON1         DATA 0xe4
0000            174   _SMOD1          DATA 0xe5
0000            175   _EIE1           DATA 0xe6
0000            176   _EIE2           DATA 0xe7
0000            177   _ADC0CN         DATA 0xe8
0000            178   _PCA0CPL1       DATA 0xe9
0000            179   _PCA0CPH1       DATA 0xea
0000            180   _PCA0CPL2       DATA 0xeb
0000            181   _PCA0CPH2       DATA 0xec
0000            182   _PCA0CPL3       DATA 0xed
0000            183   _PCA0CPH3       DATA 0xee
0000            184   _RSTSRC         DATA 0xef
0000            185   _B              DATA 0xf0
0000            186   _P0MDIN         DATA 0xf1
0000            187   _P1MDIN         DATA 0xf2
0000            188   _P2MDIN         DATA 0xf3
0000            189   _P3MDIN         DATA 0xf4
0000            190   _P4MDIN         DATA 0xf5
0000            191   _EIP1           DATA 0xf6
0000            192   _EIP2           DATA 0xf7
0000            193   _SPI0CN         DATA 0xf8
0000            194   _PCA0L          DATA 0xf9
0000            195   _PCA0H          DATA 0xfa
0000            196   _PCA0CPL0       DATA 0xfb
0000            197   _PCA0CPH0       DATA 0xfc
0000            198   _PCA0CPL4       DATA 0xfd
0000            199   _PCA0CPH4       DATA 0xfe
0000            200   _VDM0CN         DATA 0xff
0000            201   _DP             DATA 0x8382
0000            202   _TMR2RL         DATA 0xcbca
0000            203   _TMR3RL         DATA 0x9392
0000            204   _TMR4RL         DATA 0x9392
0000            205   _TMR5RL         DATA 0xcbca
0000            206   _TMR2           DATA 0xcdcc
0000            207   _TMR3           DATA 0x9594
0000            208   _TMR4           DATA 0x9594
0000            209   _TMR5           DATA 0xcdcc
0000            210   _SBRL1          DATA 0xb5b4
0000            211   _ADC0           DATA 0xbebd
0000            212   _ADC0GT         DATA 0xc4c3
0000            213   _ADC0LT         DATA 0xc6c5
0000            214   _PCA0           DATA 0xfaf9
0000            215   _PCA0CP1        DATA 0xeae9
0000            216   _PCA0CP2        DATA 0xeceb
0000            217   _PCA0CP3        DATA 0xeeed
0000            218   _PCA0CP0        DATA 0xfcfb
0000            219   _PCA0CP4        DATA 0xfefd
0000            220   ;--------------------------------------------------------
0000            221   ; special function bits
0000            222   ;--------------------------------------------------------
0000            223   _P0_0           BIT 0x80
0000            224   _P0_1           BIT 0x81
0000            225   _P0_2           BIT 0x82
0000            226   _P0_3           BIT 0x83
0000            227   _P0_4           BIT 0x84
0000            228   _P0_5           BIT 0x85
0000            229   _P0_6           BIT 0x86
0000            230   _P0_7           BIT 0x87
0000            231   _TF1            BIT 0x8f
0000            232   _TR1            BIT 0x8e
0000            233   _TF0            BIT 0x8d
0000            234   _TR0            BIT 0x8c
0000            235   _IE1            BIT 0x8b
0000            236   _IT1            BIT 0x8a
0000            237   _IE0            BIT 0x89
0000            238   _IT0            BIT 0x88
0000            239   _P1_0           BIT 0x90
0000            240   _P1_1           BIT 0x91
0000            241   _P1_2           BIT 0x92
0000            242   _P1_3           BIT 0x93
0000            243   _P1_4           BIT 0x94
0000            244   _P1_5           BIT 0x95
0000            245   _P1_6           BIT 0x96
0000            246   _P1_7           BIT 0x97
0000            247   _S0MODE         BIT 0x9f
0000            248   _SCON0_6        BIT 0x9e
0000            249   _MCE0           BIT 0x9d
0000            250   _REN0           BIT 0x9c
0000            251   _TB80           BIT 0x9b
0000            252   _RB80           BIT 0x9a
0000            253   _TI0            BIT 0x99
0000            254   _RI0            BIT 0x98
0000            255   _SCON_6         BIT 0x9e
0000            256   _MCE            BIT 0x9d
0000            257   _REN            BIT 0x9c
0000            258   _TB8            BIT 0x9b
0000            259   _RB8            BIT 0x9a
0000            260   _TI             BIT 0x99
0000            261   _RI             BIT 0x98
0000            262   _P2_0           BIT 0xa0
0000            263   _P2_1           BIT 0xa1
0000            264   _P2_2           BIT 0xa2
0000            265   _P2_3           BIT 0xa3
0000            266   _P2_4           BIT 0xa4
0000            267   _P2_5           BIT 0xa5
0000            268   _P2_6           BIT 0xa6
0000            269   _P2_7           BIT 0xa7
0000            270   _EA             BIT 0xaf
0000            271   _ESPI0          BIT 0xae
0000            272   _ET2            BIT 0xad
0000            273   _ES0            BIT 0xac
0000            274   _ET1            BIT 0xab
0000            275   _EX1            BIT 0xaa
0000            276   _ET0            BIT 0xa9
0000            277   _EX0            BIT 0xa8
0000            278   _P3_0           BIT 0xb0
0000            279   _P3_1           BIT 0xb1
0000            280   _P3_2           BIT 0xb2
0000            281   _P3_3           BIT 0xb3
0000            282   _P3_4           BIT 0xb4
0000            283   _P3_5           BIT 0xb5
0000            284   _P3_6           BIT 0xb6
0000            285   _P3_7           BIT 0xb7
0000            286   _IP_7           BIT 0xbf
0000            287   _PSPI0          BIT 0xbe
0000            288   _PT2            BIT 0xbd
0000            289   _PS0            BIT 0xbc
0000            290   _PT1            BIT 0xbb
0000            291   _PX1            BIT 0xba
0000            292   _PT0            BIT 0xb9
0000            293   _PX0            BIT 0xb8
0000            294   _MASTER0        BIT 0xc7
0000            295   _TXMODE0        BIT 0xc6
0000            296   _STA0           BIT 0xc5
0000            297   _STO0           BIT 0xc4
0000            298   _ACKRQ0         BIT 0xc3
0000            299   _ARBLOST0       BIT 0xc2
0000            300   _ACK0           BIT 0xc1
0000            301   _SI0            BIT 0xc0
0000            302   _MASTER1        BIT 0xc7
0000            303   _TXMODE1        BIT 0xc6
0000            304   _STA1           BIT 0xc5
0000            305   _STO1           BIT 0xc4
0000            306   _ACKRQ1         BIT 0xc3
0000            307   _ARBLOST1       BIT 0xc2
0000            308   _ACK1           BIT 0xc1
0000            309   _SI1            BIT 0xc0
0000            310   _TF2            BIT 0xcf
0000            311   _TF2H           BIT 0xcf
0000            312   _TF2L           BIT 0xce
0000            313   _TF2LEN         BIT 0xcd
0000            314   _TF2CEN         BIT 0xcc
0000            315   _T2SPLIT        BIT 0xcb
0000            316   _TR2            BIT 0xca
0000            317   _T2CSS          BIT 0xc9
0000            318   _T2XCLK         BIT 0xc8
0000            319   _TF5H           BIT 0xcf
0000            320   _TF5L           BIT 0xce
0000            321   _TF5LEN         BIT 0xcd
0000            322   _TMR5CN_4       BIT 0xcc
0000            323   _T5SPLIT        BIT 0xcb
0000            324   _TR5            BIT 0xca
0000            325   _TMR5CN_1       BIT 0xc9
0000            326   _T5XCLK         BIT 0xc8
0000            327   _CY             BIT 0xd7
0000            328   _AC             BIT 0xd6
0000            329   _F0             BIT 0xd5
0000            330   _RS1            BIT 0xd4
0000            331   _RS0            BIT 0xd3
0000            332   _OV             BIT 0xd2
0000            333   _F1             BIT 0xd1
0000            334   _PARITY         BIT 0xd0
0000            335   _CF             BIT 0xdf
0000            336   _CR             BIT 0xde
0000            337   _PCA0CN_5       BIT 0xde
0000            338   _CCF4           BIT 0xdc
0000            339   _CCF3           BIT 0xdb
0000            340   _CCF2           BIT 0xda
0000            341   _CCF1           BIT 0xd9
0000            342   _CCF0           BIT 0xd8
0000            343   _ACC_7          BIT 0xe7
0000            344   _ACC_6          BIT 0xe6
0000            345   _ACC_5          BIT 0xe5
0000            346   _ACC_4          BIT 0xe4
0000            347   _ACC_3          BIT 0xe3
0000            348   _ACC_2          BIT 0xe2
0000            349   _ACC_1          BIT 0xe1
0000            350   _ACC_0          BIT 0xe0
0000            351   _AD0EN          BIT 0xef
0000            352   _AD0TM          BIT 0xee
0000            353   _AD0INT         BIT 0xed
0000            354   _AD0BUSY        BIT 0xec
0000            355   _AD0WINT        BIT 0xeb
0000            356   _AD0CM2         BIT 0xea
0000            357   _AD0CM1         BIT 0xe9
0000            358   _AD0CM0         BIT 0xe8
0000            359   _B_7            BIT 0xf7
0000            360   _B_6            BIT 0xf6
0000            361   _B_5            BIT 0xf5
0000            362   _B_4            BIT 0xf4
0000            363   _B_3            BIT 0xf3
0000            364   _B_2            BIT 0xf2
0000            365   _B_1            BIT 0xf1
0000            366   _B_0            BIT 0xf0
0000            367   _SPIF           BIT 0xff
0000            368   _WCOL           BIT 0xfe
0000            369   _MODF           BIT 0xfd
0000            370   _RXOVRN         BIT 0xfc
0000            371   _NSSMD1         BIT 0xfb
0000            372   _NSSMD0         BIT 0xfa
0000            373   _TXBMT          BIT 0xf9
0000            374   _SPIEN          BIT 0xf8
0000            375   ;--------------------------------------------------------
0000            376   ; overlayable register banks
0000            377   ;--------------------------------------------------------
0000            378            rbank0 segment data overlay
0000            379   ;--------------------------------------------------------
0000            380   ; internal ram data
0000            381   ;--------------------------------------------------------
0000            382            rseg R_DSEG
0000            383   _overflow_count:
0000            384            ds 1
0001            385   _command:
0001            386            ds 2
0003            387   _Dist:
0003            388            ds 2
0005            389   _OrientFlag:
0005            390            ds 2
0007            391   _Follow_RightD_1_70:
0007            392            ds 4
000B            393   ;--------------------------------------------------------
000B            394   ; overlayable items in internal ram 
000B            395   ;--------------------------------------------------------
0000            396            rseg    R_OSEG
0000            397            rseg    R_OSEG
0000            398   ;--------------------------------------------------------
0000            399   ; indirectly addressable internal ram data
0000            400   ;--------------------------------------------------------
0000            401            rseg R_ISEG
0000            402   ;--------------------------------------------------------
0000            403   ; absolute internal ram data
0000            404   ;--------------------------------------------------------
0000            405            DSEG
0000            406   ;--------------------------------------------------------
0000            407   ; bit data
0000            408   ;--------------------------------------------------------
0000            409            rseg R_BSEG
0000            410   ;--------------------------------------------------------
0000            411   ; paged external ram data
0000            412   ;--------------------------------------------------------
0000            413            rseg R_PSEG
0000            414   ;--------------------------------------------------------
0000            415   ; external ram data
0000            416   ;--------------------------------------------------------
0000            417            rseg R_XSEG
0000            418   ;--------------------------------------------------------
0000            419   ; absolute external ram data
0000            420   ;--------------------------------------------------------
0000            421            XSEG
0000            422   ;--------------------------------------------------------
0000            423   ; external initialized ram data
0000            424   ;--------------------------------------------------------
0000            425            rseg R_IXSEG
0000            426            rseg R_HOME
0000            427            rseg R_GSINIT
0000            428            rseg R_CSEG
0000            429   ;--------------------------------------------------------
0000            430   ; Reset entry point and interrupt vectors
0000            431   ;--------------------------------------------------------
0000            432            CSEG at 0x0000
0000 020100     433            ljmp    _crt0
0003            434   ;--------------------------------------------------------
0003            435   ; global & static initialisations
0003            436   ;--------------------------------------------------------
0000            437            rseg R_HOME
0000            438            rseg R_GSINIT
0000            439            rseg R_GSINIT
0000            440   ;--------------------------------------------------------
0000            441   ; data variables initialization
0000            442   ;--------------------------------------------------------
0000            443            rseg R_DINIT
0000            444   ;        C:\Users\Leighton Carmichael\Documents\GitStuff\ElectroMagCar\Reciever.c:59: volatile unsigned int Dist = 100;  // This is a number I made up, it is supposed to be changed somewhere else in the program
0000 759064     445            mov     _Dist,#0x64
0003 E4         446            clr     a
0004 F591       447            mov     (_Dist + 1),a
0006            448            ; The linker places a 'ret' at the end of segment R_DINIT.
0006            449   ;--------------------------------------------------------
0006            450   ; code
0006            451   ;--------------------------------------------------------
0000            452            rseg R_CSEG
0000            453   ;------------------------------------------------------------
0000            454   ;Allocation info for local variables in function '_c51_external_startup'
0000            455   ;------------------------------------------------------------
0000            456   ;------------------------------------------------------------
0000            457   ;        C:\Users\Leighton Carmichael\Documents\GitStuff\ElectroMagCar\Reciever.c:65: char _c51_external_startup (void)
0000            458   ;        -----------------------------------------
0000            459   ;         function _c51_external_startup
0000            460   ;        -----------------------------------------
0000            461   __c51_external_startup:
0000            462            using   0
0000            463   ;        C:\Users\Leighton Carmichael\Documents\GitStuff\ElectroMagCar\Reciever.c:67: PCA0MD&=(~0x40) ;    // DISABLE WDT: clear Watchdog Enable bit
0000 53D9BF     464            anl     _PCA0MD,#0xBF
0003            465   ;        C:\Users\Leighton Carmichael\Documents\GitStuff\ElectroMagCar\Reciever.c:68: VDM0CN=0x80; // enable VDD monitor
0003 75FF80     466            mov     _VDM0CN,#0x80
0006            467   ;        C:\Users\Leighton Carmichael\Documents\GitStuff\ElectroMagCar\Reciever.c:69: RSTSRC=0x02|0x04; // Enable reset on missing clock detector and VDD
0006 75EF06     468            mov     _RSTSRC,#0x06
0009            469   ;        C:\Users\Leighton Carmichael\Documents\GitStuff\ElectroMagCar\Reciever.c:77: CLKSEL|=0b_0000_0011; // SYSCLK derived from the Internal High-Frequency Oscillator / 1.
0009 43A903     470            orl     _CLKSEL,#0x03
000C            471   ;        C:\Users\Leighton Carmichael\Documents\GitStuff\ElectroMagCar\Reciever.c:81: OSCICN |= 0x03; // Configure internal oscillator for its maximum frequency
000C 43B203     472            orl     _OSCICN,#0x03
000F            473   ;        C:\Users\Leighton Carmichael\Documents\GitStuff\ElectroMagCar\Reciever.c:84: SCON0 = 0x10; 
000F 759810     474            mov     _SCON0,#0x10
0012            475   ;        C:\Users\Leighton Carmichael\Documents\GitStuff\ElectroMagCar\Reciever.c:86: TH1 = 0x10000-((SYSCLK/BAUDRATE)/2L);
0012 758D30     476            mov     _TH1,#0x30
0015            477   ;        C:\Users\Leighton Carmichael\Documents\GitStuff\ElectroMagCar\Reciever.c:87: CKCON &= ~0x0B;                  // T1M = 1; SCA1:0 = xx
0015 538EF4     478            anl     _CKCON,#0xF4
0018            479   ;        C:\Users\Leighton Carmichael\Documents\GitStuff\ElectroMagCar\Reciever.c:88: CKCON |=  0x08;
0018 438E08     480            orl     _CKCON,#0x08
001B            481   ;        C:\Users\Leighton Carmichael\Documents\GitStuff\ElectroMagCar\Reciever.c:101: TL1 = TH1;      // Init Timer1
001B 858D8B     482            mov     _TL1,_TH1
001E            483   ;        C:\Users\Leighton Carmichael\Documents\GitStuff\ElectroMagCar\Reciever.c:102: TMOD &= ~0xf0;  // TMOD: timer 1 in 8-bit autoreload
001E 53890F     484            anl     _TMOD,#0x0F
0021            485   ;        C:\Users\Leighton Carmichael\Documents\GitStuff\ElectroMagCar\Reciever.c:103: TMOD |=  0x20;                       
0021 438920     486            orl     _TMOD,#0x20
0024            487   ;        C:\Users\Leighton Carmichael\Documents\GitStuff\ElectroMagCar\Reciever.c:104: TR1 = 1; // START Timer1
0024 D28E       488            setb    _TR1
0026            489   ;        C:\Users\Leighton Carmichael\Documents\GitStuff\ElectroMagCar\Reciever.c:105: TI = 1;  // Indicate TX0 ready
0026 D299       490            setb    _TI
0028            491   ;        C:\Users\Leighton Carmichael\Documents\GitStuff\ElectroMagCar\Reciever.c:108: P2MDOUT|=0b_0001_0111;
0028 43A617     492            orl     _P2MDOUT,#0x17
002B            493   ;        C:\Users\Leighton Carmichael\Documents\GitStuff\ElectroMagCar\Reciever.c:109: P0MDOUT |= 0x10; // Enable UTX as push-pull output
002B 43A410     494            orl     _P0MDOUT,#0x10
002E            495   ;        C:\Users\Leighton Carmichael\Documents\GitStuff\ElectroMagCar\Reciever.c:110: XBR0     = 0x01; // Enable UART on P0.4(TX) and P0.5(RX)                     
002E 75E101     496            mov     _XBR0,#0x01
0031            497   ;        C:\Users\Leighton Carmichael\Documents\GitStuff\ElectroMagCar\Reciever.c:111: XBR1     = 0x40; // Enable crossbar and weak pull-ups
0031 75E240     498            mov     _XBR1,#0x40
0034            499   ;        C:\Users\Leighton Carmichael\Documents\GitStuff\ElectroMagCar\Reciever.c:114: TMR2CN=0x00;   // Stop Timer2; Clear TF2;
0034 75C800     500            mov     _TMR2CN,#0x00
0037            501   ;        C:\Users\Leighton Carmichael\Documents\GitStuff\ElectroMagCar\Reciever.c:115: CKCON|=0b_0001_0000;
0037 438E10     502            orl     _CKCON,#0x10
003A            503   ;        C:\Users\Leighton Carmichael\Documents\GitStuff\ElectroMagCar\Reciever.c:116: TMR2RL=(-(SYSCLK/(2*48))/(100L)); // Initialize reload value
003A 75CA78     504            mov     _TMR2RL,#0x78
003D 75CBEC     505            mov     (_TMR2RL >> 8),#0xEC
0040            506   ;        C:\Users\Leighton Carmichael\Documents\GitStuff\ElectroMagCar\Reciever.c:117: TMR2=0xffff;   // Set to reload immediately
0040 75CCFF     507            mov     _TMR2,#0xFF
0043 75CDFF     508            mov     (_TMR2 >> 8),#0xFF
0046            509   ;        C:\Users\Leighton Carmichael\Documents\GitStuff\ElectroMagCar\Reciever.c:118: ET2=1;         // Enable Timer2 interrupts
0046 D2AD       510            setb    _ET2
0048            511   ;        C:\Users\Leighton Carmichael\Documents\GitStuff\ElectroMagCar\Reciever.c:119: TR2=1;         // Start Timer2
0048 D2CA       512            setb    _TR2
004A            513   ;        C:\Users\Leighton Carmichael\Documents\GitStuff\ElectroMagCar\Reciever.c:121: EA=1; // Enable interrupts
004A D2AF       514            setb    _EA
004C            515   ;        C:\Users\Leighton Carmichael\Documents\GitStuff\ElectroMagCar\Reciever.c:123: return 0;
004C 758200     516            mov     dpl,#0x00
004F 22         517            ret
0050            518   ;------------------------------------------------------------
0050            519   ;Allocation info for local variables in function 'change_Dist'
0050            520   ;------------------------------------------------------------
0050            521   ;new                       Allocated to registers 
0050            522   ;------------------------------------------------------------
0050            523   ;        C:\Users\Leighton Carmichael\Documents\GitStuff\ElectroMagCar\Reciever.c:125: void change_Dist(int new){  //call to change the distance
0050            524   ;        -----------------------------------------
0050            525   ;         function change_Dist
0050            526   ;        -----------------------------------------
0050            527   _change_Dist:
0050 858290     528            mov     _Dist,dpl
0053 858391     529            mov     (_Dist + 1),dph
0056            530   ;        C:\Users\Leighton Carmichael\Documents\GitStuff\ElectroMagCar\Reciever.c:127: return;
0056 22         531            ret
0057            532   ;------------------------------------------------------------
0057            533   ;Allocation info for local variables in function 'Timer3us'
0057            534   ;------------------------------------------------------------
0057            535   ;us                        Allocated to registers r2 r3 r4 r5 
0057            536   ;i                         Allocated to registers r6 r7 r0 r1 
0057            537   ;------------------------------------------------------------
0057            538   ;        C:\Users\Leighton Carmichael\Documents\GitStuff\ElectroMagCar\Reciever.c:131: void Timer3us(unsigned long us)
0057            539   ;        -----------------------------------------
0057            540   ;         function Timer3us
0057            541   ;        -----------------------------------------
0057            542   _Timer3us:
0057 AA82       543            mov     r2,dpl
0059 AB83       544            mov     r3,dph
005B ACF0       545            mov     r4,b
005D FD         546            mov     r5,a
005E            547   ;        C:\Users\Leighton Carmichael\Documents\GitStuff\ElectroMagCar\Reciever.c:136: CKCON|=0b_0100_0000;
005E 438E40     548            orl     _CKCON,#0x40
0061            549   ;        C:\Users\Leighton Carmichael\Documents\GitStuff\ElectroMagCar\Reciever.c:138: TMR3RL = (-(SYSCLK)/1000000L); // Set Timer3 to overflow in 1us.
0061 7592D0     550            mov     _TMR3RL,#0xD0
0064 7593FF     551            mov     (_TMR3RL >> 8),#0xFF
0067            552   ;        C:\Users\Leighton Carmichael\Documents\GitStuff\ElectroMagCar\Reciever.c:139: TMR3 = TMR3RL;                 // Initialize Timer3 for first overflow
0067 859294     553            mov     _TMR3,_TMR3RL
006A 859395     554            mov     (_TMR3 >> 8),(_TMR3RL >> 8)
006D            555   ;        C:\Users\Leighton Carmichael\Documents\GitStuff\ElectroMagCar\Reciever.c:141: TMR3CN = 0x04;                 // Sart Timer3 and clear overflow flag
006D 759104     556            mov     _TMR3CN,#0x04
0070            557   ;        C:\Users\Leighton Carmichael\Documents\GitStuff\ElectroMagCar\Reciever.c:142: for (i = 0; i < us; i++)       // Count <us> overflows
0070 7E00       558            mov     r6,#0x00
0072 7F00       559            mov     r7,#0x00
0074 7800       560            mov     r0,#0x00
0076 7900       561            mov     r1,#0x00
0078            562   L004004?:
0078 C3         563            clr     c
0079 EE         564            mov     a,r6
007A 9A         565            subb    a,r2
007B EF         566            mov     a,r7
007C 9B         567            subb    a,r3
007D E8         568            mov     a,r0
007E 9C         569            subb    a,r4
007F E9         570            mov     a,r1
0080 9D         571            subb    a,r5
0081 5001       572            jnc     L004007?
0083            573   ;        C:\Users\Leighton Carmichael\Documents\GitStuff\ElectroMagCar\Reciever.c:144: while (!(TMR3CN & 0x80));  // Wait for overflow
0083            574   L004001?:
0083 E591       575            mov     a,_TMR3CN
0085 30E720     576            jnb     acc.7,L004001?
0088            577   ;        C:\Users\Leighton Carmichael\Documents\GitStuff\ElectroMagCar\Reciever.c:145: TMR3CN &= ~(0x80);         // Clear overflow indicator
0088 53917F     578            anl     _TMR3CN,#0x7F
008B            579   ;        C:\Users\Leighton Carmichael\Documents\GitStuff\ElectroMagCar\Reciever.c:142: for (i = 0; i < us; i++)       // Count <us> overflows
008B 0E         580            inc     r6
008C BE00A0     581            cjne    r6,#0x00,L004016?
008F 0F         582            inc     r7
0090 BF00A0     583            cjne    r7,#0x00,L004016?
0093 08         584            inc     r0
0094 B800A0     585            cjne    r0,#0x00,L004004?
0097 09         586            inc     r1
0098            587   L004016?:
0098 8001       588            sjmp    L004004?
009A            589   L004007?:
009A            590   ;        C:\Users\Leighton Carmichael\Documents\GitStuff\ElectroMagCar\Reciever.c:147: TMR3CN = 0 ;                   // Stop Timer3 and clear overflow flag
009A 759100     591            mov     _TMR3CN,#0x00
009D 22         592            ret
009E            593   ;------------------------------------------------------------
009E            594   ;Allocation info for local variables in function 'wait_bit_time'
009E            595   ;------------------------------------------------------------
009E            596   ;------------------------------------------------------------
009E            597   ;        C:\Users\Leighton Carmichael\Documents\GitStuff\ElectroMagCar\Reciever.c:149: void wait_bit_time(){
009E            598   ;        -----------------------------------------
009E            599   ;         function wait_bit_time
009E            600   ;        -----------------------------------------
009E            601   _wait_bit_time:
009E            602   ;        C:\Users\Leighton Carmichael\Documents\GitStuff\ElectroMagCar\Reciever.c:150: waitms(4);
009E 900004     603            mov     dptr,#0x0004
00A1            604   ;        C:\Users\Leighton Carmichael\Documents\GitStuff\ElectroMagCar\Reciever.c:151: return;
00A1 020100     605            ljmp    _waitms
00A4            606   ;------------------------------------------------------------
00A4            607   ;Allocation info for local variables in function 'wait_one_and_half_bit_time'
00A4            608   ;------------------------------------------------------------
00A4            609   ;------------------------------------------------------------
00A4            610   ;        C:\Users\Leighton Carmichael\Documents\GitStuff\ElectroMagCar\Reciever.c:154: void wait_one_and_half_bit_time(){
00A4            611   ;        -----------------------------------------
00A4            612   ;         function wait_one_and_half_bit_time
00A4            613   ;        -----------------------------------------
00A4            614   _wait_one_and_half_bit_time:
00A4            615   ;        C:\Users\Leighton Carmichael\Documents\GitStuff\ElectroMagCar\Reciever.c:155: waitms(6);
00A4 900006     616            mov     dptr,#0x0006
00A7            617   ;        C:\Users\Leighton Carmichael\Documents\GitStuff\ElectroMagCar\Reciever.c:156: return;
00A7 020100     618            ljmp    _waitms
00AA            619   ;------------------------------------------------------------
00AA            620   ;Allocation info for local variables in function 'rx_byte'
00AA            621   ;------------------------------------------------------------
00AA            622   ;j                         Allocated to registers r3 
00AA            623   ;val                       Allocated to registers r2 
00AA            624   ;v                         Allocated to registers r4 r5 
00AA            625   ;------------------------------------------------------------
00AA            626   ;        C:\Users\Leighton Carmichael\Documents\GitStuff\ElectroMagCar\Reciever.c:160: unsigned char rx_byte (){ 
00AA            627   ;        -----------------------------------------
00AA            628   ;         function rx_byte
00AA            629   ;        -----------------------------------------
00AA            630   _rx_byte:
00AA            631   ;        C:\Users\Leighton Carmichael\Documents\GitStuff\ElectroMagCar\Reciever.c:164: val= 0;
00AA 7A00       632            mov     r2,#0x00
00AC            633   ;        C:\Users\Leighton Carmichael\Documents\GitStuff\ElectroMagCar\Reciever.c:165: wait_one_and_half_bit_time();
00AC C002       634            push    ar2
00AE 120100     635            lcall   _wait_one_and_half_bit_time
00B1 D002       636            pop     ar2
00B3            637   ;        C:\Users\Leighton Carmichael\Documents\GitStuff\ElectroMagCar\Reciever.c:166: for(j= 0; j < 8; j++){    
00B3 7B00       638            mov     r3,#0x00
00B5            639   L007001?:
00B5 BB0820     640            cjne    r3,#0x08,L007013?
00B8            641   L007013?:
00B8 5001       642            jnc     L007004?
00BA            643   ;        C:\Users\Leighton Carmichael\Documents\GitStuff\ElectroMagCar\Reciever.c:167: v=GetADC(0);
00BA 900000     644            mov     dptr,#0x0000
00BD C002       645            push    ar2
00BF C003       646            push    ar3
00C1 120100     647            lcall   _GetADC
00C4 120100     648            lcall   ___fs2sint
00C7 AC82       649            mov     r4,dpl
00C9 AD83       650            mov     r5,dph
00CB D003       651            pop     ar3
00CD D002       652            pop     ar2
00CF            653   ;        C:\Users\Leighton Carmichael\Documents\GitStuff\ElectroMagCar\Reciever.c:168: val|=(v>MIN)?(0x01<<j):0x00;  // MIN defined up top
00CF C3         654            clr     c
00D0 7403       655            mov     a,#0x03
00D2 9C         656            subb    a,r4
00D3 E4         657            clr     a
00D4 6480       658            xrl     a,#0x80
00D6 8DF0       659            mov     b,r5
00D8 63F080     660            xrl     b,#0x80
00DB 95F0       661            subb    a,b
00DD 5001       662            jnc     L007007?
00DF 8BF0       663            mov     b,r3
00E1 05F0       664            inc     b
00E3 7401       665            mov     a,#0x01
00E5 8001       666            sjmp    L007018?
00E7            667   L007016?:
00E7 25E0       668            add     a,acc
00E9            669   L007018?:
00E9 D5F060     670            djnz    b,L007016?
00EC FC         671            mov     r4,a
00ED 8001       672            sjmp    L007008?
00EF            673   L007007?:
00EF 7C00       674            mov     r4,#0x00
00F1            675   L007008?:
00F1 EC         676            mov     a,r4
00F2 4202       677            orl     ar2,a
00F4            678   ;        C:\Users\Leighton Carmichael\Documents\GitStuff\ElectroMagCar\Reciever.c:169: wait_bit_time();}
00F4 C002       679            push    ar2
00F6 C003       680            push    ar3
00F8 120100     681            lcall   _wait_bit_time
00FB D003       682            pop     ar3
00FD D002       683            pop     ar2
00FF            684   ;        C:\Users\Leighton Carmichael\Documents\GitStuff\ElectroMagCar\Reciever.c:166: for(j= 0; j < 8; j++){    
00FF 0B         685            inc     r3
0100 8001       686            sjmp    L007001?
0102            687   L007004?:
0102            688   ;        C:\Users\Leighton Carmichael\Documents\GitStuff\ElectroMagCar\Reciever.c:171: wait_one_and_half_bit_time();
0102 C002       689            push    ar2
0104 120100     690            lcall   _wait_one_and_half_bit_time
0107 D002       691            pop     ar2
0109            692   ;        C:\Users\Leighton Carmichael\Documents\GitStuff\ElectroMagCar\Reciever.c:172: return val;
0109 8A82       693            mov     dpl,r2
010B 22         694            ret
010C            695   ;------------------------------------------------------------
010C            696   ;Allocation info for local variables in function 'waitms'
010C            697   ;------------------------------------------------------------
010C            698   ;ms                        Allocated to registers r2 r3 
010C            699   ;j                         Allocated to registers r2 r3 
010C            700   ;------------------------------------------------------------
010C            701   ;        C:\Users\Leighton Carmichael\Documents\GitStuff\ElectroMagCar\Reciever.c:174: void waitms (unsigned int ms)
010C            702   ;        -----------------------------------------
010C            703   ;         function waitms
010C            704   ;        -----------------------------------------
010C            705   _waitms:
010C AA82       706            mov     r2,dpl
010E AB83       707            mov     r3,dph
0110            708   ;        C:\Users\Leighton Carmichael\Documents\GitStuff\ElectroMagCar\Reciever.c:177: for(j=ms; j!=0; j--)
0110            709   L008001?:
0110 BA0020     710            cjne    r2,#0x00,L008010?
0113 BB0020     711            cjne    r3,#0x00,L008010?
0116 22         712            ret
0117            713   L008010?:
0117            714   ;        C:\Users\Leighton Carmichael\Documents\GitStuff\ElectroMagCar\Reciever.c:179: Timer3us(249);
0117 9000F9     715            mov     dptr,#(0xF9&0x00ff)
011A E4         716            clr     a
011B F5F0       717            mov     b,a
011D C002       718            push    ar2
011F C003       719            push    ar3
0121 120100     720            lcall   _Timer3us
0124            721   ;        C:\Users\Leighton Carmichael\Documents\GitStuff\ElectroMagCar\Reciever.c:180: Timer3us(249);
0124 9000F9     722            mov     dptr,#(0xF9&0x00ff)
0127 E4         723            clr     a
0128 F5F0       724            mov     b,a
012A 120100     725            lcall   _Timer3us
012D            726   ;        C:\Users\Leighton Carmichael\Documents\GitStuff\ElectroMagCar\Reciever.c:181: Timer3us(249);
012D 9000F9     727            mov     dptr,#(0xF9&0x00ff)
0130 E4         728            clr     a
0131 F5F0       729            mov     b,a
0133 120100     730            lcall   _Timer3us
0136            731   ;        C:\Users\Leighton Carmichael\Documents\GitStuff\ElectroMagCar\Reciever.c:182: Timer3us(250);
0136 9000FA     732            mov     dptr,#(0xFA&0x00ff)
0139 E4         733            clr     a
013A F5F0       734            mov     b,a
013C 120100     735            lcall   _Timer3us
013F D003       736            pop     ar3
0141 D002       737            pop     ar2
0143            738   ;        C:\Users\Leighton Carmichael\Documents\GitStuff\ElectroMagCar\Reciever.c:177: for(j=ms; j!=0; j--)
0143 1A         739            dec     r2
0144 BAFF60     740            cjne    r2,#0xff,L008011?
0147 1B         741            dec     r3
0148            742   L008011?:
0148 8001       743            sjmp    L008001?
014A            744   ;------------------------------------------------------------
014A            745   ;Allocation info for local variables in function 'PORT_Init'
014A            746   ;------------------------------------------------------------
014A            747   ;------------------------------------------------------------
014A            748   ;        C:\Users\Leighton Carmichael\Documents\GitStuff\ElectroMagCar\Reciever.c:186: void PORT_Init (void)
014A            749   ;        -----------------------------------------
014A            750   ;         function PORT_Init
014A            751   ;        -----------------------------------------
014A            752   _PORT_Init:
014A            753   ;        C:\Users\Leighton Carmichael\Documents\GitStuff\ElectroMagCar\Reciever.c:188: P0MDOUT |= 0x10; // Enable UART TX as push-pull output
014A 43A410     754            orl     _P0MDOUT,#0x10
014D            755   ;        C:\Users\Leighton Carmichael\Documents\GitStuff\ElectroMagCar\Reciever.c:189: XBR0=0b_0000_0001; // Enable UART on P0.4(TX) and P0.5(RX)                    
014D 75E101     756            mov     _XBR0,#0x01
0150            757   ;        C:\Users\Leighton Carmichael\Documents\GitStuff\ElectroMagCar\Reciever.c:190: XBR1=0b_0101_0000; // Enable crossbar.  Enable T0 input.
0150 75E250     758            mov     _XBR1,#0x50
0153            759   ;        C:\Users\Leighton Carmichael\Documents\GitStuff\ElectroMagCar\Reciever.c:191: XBR2=0b_0000_0000;
0153 75E300     760            mov     _XBR2,#0x00
0156 22         761            ret
0157            762   ;------------------------------------------------------------
0157            763   ;Allocation info for local variables in function 'SYSCLK_Init'
0157            764   ;------------------------------------------------------------
0157            765   ;------------------------------------------------------------
0157            766   ;        C:\Users\Leighton Carmichael\Documents\GitStuff\ElectroMagCar\Reciever.c:194: void SYSCLK_Init (void)
0157            767   ;        -----------------------------------------
0157            768   ;         function SYSCLK_Init
0157            769   ;        -----------------------------------------
0157            770   _SYSCLK_Init:
0157            771   ;        C:\Users\Leighton Carmichael\Documents\GitStuff\ElectroMagCar\Reciever.c:202: CLKSEL|=0b_0000_0011; // SYSCLK derived from the Internal High-Frequency Oscillator / 1.
0157 43A903     772            orl     _CLKSEL,#0x03
015A            773   ;        C:\Users\Leighton Carmichael\Documents\GitStuff\ElectroMagCar\Reciever.c:206: OSCICN |= 0x03;   // Configure internal oscillator for its maximum frequency
015A 43B203     774            orl     _OSCICN,#0x03
015D            775   ;        C:\Users\Leighton Carmichael\Documents\GitStuff\ElectroMagCar\Reciever.c:207: RSTSRC  = 0x04;   // Enable missing clock detector
015D 75EF04     776            mov     _RSTSRC,#0x04
0160 22         777            ret
0161            778   ;------------------------------------------------------------
0161            779   ;Allocation info for local variables in function 'UART0_Init'
0161            780   ;------------------------------------------------------------
0161            781   ;------------------------------------------------------------
0161            782   ;        C:\Users\Leighton Carmichael\Documents\GitStuff\ElectroMagCar\Reciever.c:210: void UART0_Init (void)
0161            783   ;        -----------------------------------------
0161            784   ;         function UART0_Init
0161            785   ;        -----------------------------------------
0161            786   _UART0_Init:
0161            787   ;        C:\Users\Leighton Carmichael\Documents\GitStuff\ElectroMagCar\Reciever.c:212: SCON0 = 0x10;
0161 759810     788            mov     _SCON0,#0x10
0164            789   ;        C:\Users\Leighton Carmichael\Documents\GitStuff\ElectroMagCar\Reciever.c:215: TH1 = 0x10000-((SYSCLK/BAUDRATE)/2L);
0164 758D30     790            mov     _TH1,#0x30
0167            791   ;        C:\Users\Leighton Carmichael\Documents\GitStuff\ElectroMagCar\Reciever.c:216: CKCON &= ~0x0B;                  // T1M = 1; SCA1:0 = xx
0167 538EF4     792            anl     _CKCON,#0xF4
016A            793   ;        C:\Users\Leighton Carmichael\Documents\GitStuff\ElectroMagCar\Reciever.c:217: CKCON |=  0x08;
016A 438E08     794            orl     _CKCON,#0x08
016D            795   ;        C:\Users\Leighton Carmichael\Documents\GitStuff\ElectroMagCar\Reciever.c:230: TL1 = TH1;      // Init Timer1
016D 858D8B     796            mov     _TL1,_TH1
0170            797   ;        C:\Users\Leighton Carmichael\Documents\GitStuff\ElectroMagCar\Reciever.c:231: TMOD &= ~0xf0;  // TMOD: timer 1 in 8-bit autoreload
0170 53890F     798            anl     _TMOD,#0x0F
0173            799   ;        C:\Users\Leighton Carmichael\Documents\GitStuff\ElectroMagCar\Reciever.c:232: TMOD |=  0x20;                       
0173 438920     800            orl     _TMOD,#0x20
0176            801   ;        C:\Users\Leighton Carmichael\Documents\GitStuff\ElectroMagCar\Reciever.c:233: TR1 = 1; // START Timer1
0176 D28E       802            setb    _TR1
0178            803   ;        C:\Users\Leighton Carmichael\Documents\GitStuff\ElectroMagCar\Reciever.c:234: TI = 1;  // Indicate TX0 ready
0178 D299       804            setb    _TI
017A 22         805            ret
017B            806   ;------------------------------------------------------------
017B            807   ;Allocation info for local variables in function 'TIMER0_Init'
017B            808   ;------------------------------------------------------------
017B            809   ;------------------------------------------------------------
017B            810   ;        C:\Users\Leighton Carmichael\Documents\GitStuff\ElectroMagCar\Reciever.c:237: void TIMER0_Init(void)
017B            811   ;        -----------------------------------------
017B            812   ;         function TIMER0_Init
017B            813   ;        -----------------------------------------
017B            814   _TIMER0_Init:
017B            815   ;        C:\Users\Leighton Carmichael\Documents\GitStuff\ElectroMagCar\Reciever.c:239: TMOD&=0b_1111_0000; // Set the bits of Timer/Counter 0 to zero
017B 5389F0     816            anl     _TMOD,#0xF0
017E            817   ;        C:\Users\Leighton Carmichael\Documents\GitStuff\ElectroMagCar\Reciever.c:240: TMOD|=0b_0000_0001; // Timer/Counter 0 used as a 16-bit timer
017E 438901     818            orl     _TMOD,#0x01
0181            819   ;        C:\Users\Leighton Carmichael\Documents\GitStuff\ElectroMagCar\Reciever.c:241: TR0=0; // Stop Timer/Counter 0
0181 C28C       820            clr     _TR0
0183 22         821            ret
0184            822   ;------------------------------------------------------------
0184            823   ;Allocation info for local variables in function 'SpinL'
0184            824   ;------------------------------------------------------------
0184            825   ;------------------------------------------------------------
0184            826   ;        C:\Users\Leighton Carmichael\Documents\GitStuff\ElectroMagCar\Reciever.c:243: void SpinL (void)
0184            827   ;        -----------------------------------------
0184            828   ;         function SpinL
0184            829   ;        -----------------------------------------
0184            830   _SpinL:
0184            831   ;        C:\Users\Leighton Carmichael\Documents\GitStuff\ElectroMagCar\Reciever.c:247: M1P1 = HIGH; 
0184 D2A7       832            setb    _P2_7
0186            833   ;        C:\Users\Leighton Carmichael\Documents\GitStuff\ElectroMagCar\Reciever.c:248: M1P2 = LOW; 
0186 C2A5       834            clr     _P2_5
0188            835   ;        C:\Users\Leighton Carmichael\Documents\GitStuff\ElectroMagCar\Reciever.c:249: M2P1 = LOW; 
0188 C2A4       836            clr     _P2_4
018A            837   ;        C:\Users\Leighton Carmichael\Documents\GitStuff\ElectroMagCar\Reciever.c:250: M2P2 = HIGH; 
018A D2A3       838            setb    _P2_3
018C            839   ;        C:\Users\Leighton Carmichael\Documents\GitStuff\ElectroMagCar\Reciever.c:252: waitms(20);// Change the MS here for however long it takes to do a full rotation 
018C 900014     840            mov     dptr,#0x0014
018F 120100     841            lcall   _waitms
0192            842   ;        C:\Users\Leighton Carmichael\Documents\GitStuff\ElectroMagCar\Reciever.c:255: M1P1 = LOW; 
0192 C2A7       843            clr     _P2_7
0194            844   ;        C:\Users\Leighton Carmichael\Documents\GitStuff\ElectroMagCar\Reciever.c:256: M1P2 = LOW; 
0194 C2A5       845            clr     _P2_5
0196            846   ;        C:\Users\Leighton Carmichael\Documents\GitStuff\ElectroMagCar\Reciever.c:257: M2P1 = LOW; 
0196 C2A4       847            clr     _P2_4
0198            848   ;        C:\Users\Leighton Carmichael\Documents\GitStuff\ElectroMagCar\Reciever.c:258: M2P2 = LOW;
0198 C2A3       849            clr     _P2_3
019A            850   ;        C:\Users\Leighton Carmichael\Documents\GitStuff\ElectroMagCar\Reciever.c:260: OrientFlag = 0;
019A E4         851            clr     a
019B F550       852            mov     _OrientFlag,a
019D F551       853            mov     (_OrientFlag + 1),a
019F            854   ;        C:\Users\Leighton Carmichael\Documents\GitStuff\ElectroMagCar\Reciever.c:261: return;
019F 22         855            ret
01A0            856   ;------------------------------------------------------------
01A0            857   ;Allocation info for local variables in function 'SpinR'
01A0            858   ;------------------------------------------------------------
01A0            859   ;------------------------------------------------------------
01A0            860   ;        C:\Users\Leighton Carmichael\Documents\GitStuff\ElectroMagCar\Reciever.c:263: void SpinR (void){
01A0            861   ;        -----------------------------------------
01A0            862   ;         function SpinR
01A0            863   ;        -----------------------------------------
01A0            864   _SpinR:
01A0            865   ;        C:\Users\Leighton Carmichael\Documents\GitStuff\ElectroMagCar\Reciever.c:267: M1P1 = LOW; 
01A0 C2A7       866            clr     _P2_7
01A2            867   ;        C:\Users\Leighton Carmichael\Documents\GitStuff\ElectroMagCar\Reciever.c:268: M1P2 = HIGH; 
01A2 D2A5       868            setb    _P2_5
01A4            869   ;        C:\Users\Leighton Carmichael\Documents\GitStuff\ElectroMagCar\Reciever.c:269: M2P1 = HIGH; 
01A4 D2A4       870            setb    _P2_4
01A6            871   ;        C:\Users\Leighton Carmichael\Documents\GitStuff\ElectroMagCar\Reciever.c:270: M2P2 = LOW; 
01A6 C2A3       872            clr     _P2_3
01A8            873   ;        C:\Users\Leighton Carmichael\Documents\GitStuff\ElectroMagCar\Reciever.c:272: waitms(20);// Change the MS here for however long it takes to do a full rotation 
01A8 900014     874            mov     dptr,#0x0014
01AB 120100     875            lcall   _waitms
01AE            876   ;        C:\Users\Leighton Carmichael\Documents\GitStuff\ElectroMagCar\Reciever.c:275: M1P1 = LOW; 
01AE C2A7       877            clr     _P2_7
01B0            878   ;        C:\Users\Leighton Carmichael\Documents\GitStuff\ElectroMagCar\Reciever.c:276: M1P2 = LOW; 
01B0 C2A5       879            clr     _P2_5
01B2            880   ;        C:\Users\Leighton Carmichael\Documents\GitStuff\ElectroMagCar\Reciever.c:277: M2P1 = LOW; 
01B2 C2A4       881            clr     _P2_4
01B4            882   ;        C:\Users\Leighton Carmichael\Documents\GitStuff\ElectroMagCar\Reciever.c:278: M2P2 = LOW;
01B4 C2A3       883            clr     _P2_3
01B6            884   ;        C:\Users\Leighton Carmichael\Documents\GitStuff\ElectroMagCar\Reciever.c:280: OrientFlag = 0;
01B6 E4         885            clr     a
01B7 F550       886            mov     _OrientFlag,a
01B9 F551       887            mov     (_OrientFlag + 1),a
01BB            888   ;        C:\Users\Leighton Carmichael\Documents\GitStuff\ElectroMagCar\Reciever.c:281: return;
01BB 22         889            ret
01BC            890   ;------------------------------------------------------------
01BC            891   ;Allocation info for local variables in function 'Forward'
01BC            892   ;------------------------------------------------------------
01BC            893   ;------------------------------------------------------------
01BC            894   ;        C:\Users\Leighton Carmichael\Documents\GitStuff\ElectroMagCar\Reciever.c:284: void Forward (void){
01BC            895   ;        -----------------------------------------
01BC            896   ;         function Forward
01BC            897   ;        -----------------------------------------
01BC            898   _Forward:
01BC            899   ;        C:\Users\Leighton Carmichael\Documents\GitStuff\ElectroMagCar\Reciever.c:285: while ( command == 1){
01BC            900   L015001?:
01BC 7401       901            mov     a,#0x01
01BE B5D0E0     902            cjne    a,_command,L015008?
01C1 E4         903            clr     a
01C2 B5D1E0     904            cjne    a,(_command + 1),L015008?
01C5 8001       905            sjmp    L015009?
01C7            906   L015008?:
01C7 8001       907            sjmp    L015003?
01C9            908   L015009?:
01C9            909   ;        C:\Users\Leighton Carmichael\Documents\GitStuff\ElectroMagCar\Reciever.c:286: M1P1 = HIGH;
01C9 D2A7       910            setb    _P2_7
01CB            911   ;        C:\Users\Leighton Carmichael\Documents\GitStuff\ElectroMagCar\Reciever.c:287: M2P1 = HIGH;
01CB D2A4       912            setb    _P2_4
01CD            913   ;        C:\Users\Leighton Carmichael\Documents\GitStuff\ElectroMagCar\Reciever.c:288: M1P2 = LOW;
01CD C2A5       914            clr     _P2_5
01CF            915   ;        C:\Users\Leighton Carmichael\Documents\GitStuff\ElectroMagCar\Reciever.c:289: M2P2 = LOW;}
01CF C2A3       916            clr     _P2_3
01D1 8001       917            sjmp    L015001?
01D3            918   L015003?:
01D3            919   ;        C:\Users\Leighton Carmichael\Documents\GitStuff\ElectroMagCar\Reciever.c:290: return;}
01D3 22         920            ret
01D4            921   ;------------------------------------------------------------
01D4            922   ;Allocation info for local variables in function 'Backwards'
01D4            923   ;------------------------------------------------------------
01D4            924   ;------------------------------------------------------------
01D4            925   ;        C:\Users\Leighton Carmichael\Documents\GitStuff\ElectroMagCar\Reciever.c:292: void Backwards (void){
01D4            926   ;        -----------------------------------------
01D4            927   ;         function Backwards
01D4            928   ;        -----------------------------------------
01D4            929   _Backwards:
01D4            930   ;        C:\Users\Leighton Carmichael\Documents\GitStuff\ElectroMagCar\Reciever.c:293: M1P1 = LOW;
01D4 C2A7       931            clr     _P2_7
01D6            932   ;        C:\Users\Leighton Carmichael\Documents\GitStuff\ElectroMagCar\Reciever.c:294: M2P1 = LOW;
01D6 C2A4       933            clr     _P2_4
01D8            934   ;        C:\Users\Leighton Carmichael\Documents\GitStuff\ElectroMagCar\Reciever.c:295: M1P2 = HIGH;
01D8 D2A5       935            setb    _P2_5
01DA            936   ;        C:\Users\Leighton Carmichael\Documents\GitStuff\ElectroMagCar\Reciever.c:296: M2P2 = HIGH;
01DA D2A3       937            setb    _P2_3
01DC            938   ;        C:\Users\Leighton Carmichael\Documents\GitStuff\ElectroMagCar\Reciever.c:297: return;}
01DC 22         939            ret
01DD            940   ;------------------------------------------------------------
01DD            941   ;Allocation info for local variables in function 'Left'
01DD            942   ;------------------------------------------------------------
01DD            943   ;------------------------------------------------------------
01DD            944   ;        C:\Users\Leighton Carmichael\Documents\GitStuff\ElectroMagCar\Reciever.c:299: void Left (void){
01DD            945   ;        -----------------------------------------
01DD            946   ;         function Left
01DD            947   ;        -----------------------------------------
01DD            948   _Left:
01DD            949   ;        C:\Users\Leighton Carmichael\Documents\GitStuff\ElectroMagCar\Reciever.c:300: M1P1 = HIGH;
01DD D2A7       950            setb    _P2_7
01DF            951   ;        C:\Users\Leighton Carmichael\Documents\GitStuff\ElectroMagCar\Reciever.c:301: M2P1 = LOW;
01DF C2A4       952            clr     _P2_4
01E1            953   ;        C:\Users\Leighton Carmichael\Documents\GitStuff\ElectroMagCar\Reciever.c:302: M1P2 = HIGH;
01E1 D2A5       954            setb    _P2_5
01E3            955   ;        C:\Users\Leighton Carmichael\Documents\GitStuff\ElectroMagCar\Reciever.c:303: M2P2 = LOW;
01E3 C2A3       956            clr     _P2_3
01E5            957   ;        C:\Users\Leighton Carmichael\Documents\GitStuff\ElectroMagCar\Reciever.c:304: return;}
01E5 22         958            ret
01E6            959   ;------------------------------------------------------------
01E6            960   ;Allocation info for local variables in function 'Right'
01E6            961   ;------------------------------------------------------------
01E6            962   ;------------------------------------------------------------
01E6            963   ;        C:\Users\Leighton Carmichael\Documents\GitStuff\ElectroMagCar\Reciever.c:306: void Right (void){
01E6            964   ;        -----------------------------------------
01E6            965   ;         function Right
01E6            966   ;        -----------------------------------------
01E6            967   _Right:
01E6            968   ;        C:\Users\Leighton Carmichael\Documents\GitStuff\ElectroMagCar\Reciever.c:307: M1P1 = LOW;
01E6 C2A7       969            clr     _P2_7
01E8            970   ;        C:\Users\Leighton Carmichael\Documents\GitStuff\ElectroMagCar\Reciever.c:308: M2P1 = HIGH;
01E8 D2A4       971            setb    _P2_4
01EA            972   ;        C:\Users\Leighton Carmichael\Documents\GitStuff\ElectroMagCar\Reciever.c:309: M1P2 = LOW;
01EA C2A5       973            clr     _P2_5
01EC            974   ;        C:\Users\Leighton Carmichael\Documents\GitStuff\ElectroMagCar\Reciever.c:310: M2P2 = HIGH;
01EC D2A3       975            setb    _P2_3
01EE            976   ;        C:\Users\Leighton Carmichael\Documents\GitStuff\ElectroMagCar\Reciever.c:311: return;}
01EE 22         977            ret
01EF            978   ;------------------------------------------------------------
01EF            979   ;Allocation info for local variables in function 'Clear_Pins'
01EF            980   ;------------------------------------------------------------
01EF            981   ;------------------------------------------------------------
01EF            982   ;        C:\Users\Leighton Carmichael\Documents\GitStuff\ElectroMagCar\Reciever.c:313: void Clear_Pins(void){
01EF            983   ;        -----------------------------------------
01EF            984   ;         function Clear_Pins
01EF            985   ;        -----------------------------------------
01EF            986   _Clear_Pins:
01EF            987   ;        C:\Users\Leighton Carmichael\Documents\GitStuff\ElectroMagCar\Reciever.c:314: M1P1 = LOW;
01EF C2A7       988            clr     _P2_7
01F1            989   ;        C:\Users\Leighton Carmichael\Documents\GitStuff\ElectroMagCar\Reciever.c:315: M1P2 = LOW;
01F1 C2A5       990            clr     _P2_5
01F3            991   ;        C:\Users\Leighton Carmichael\Documents\GitStuff\ElectroMagCar\Reciever.c:316: M2P1 = LOW;
01F3 C2A4       992            clr     _P2_4
01F5            993   ;        C:\Users\Leighton Carmichael\Documents\GitStuff\ElectroMagCar\Reciever.c:317: M2P2 = LOW;
01F5 C2A3       994            clr     _P2_3
01F7            995   ;        C:\Users\Leighton Carmichael\Documents\GitStuff\ElectroMagCar\Reciever.c:318: return;}
01F7 22         996            ret
01F8            997   ;------------------------------------------------------------
01F8            998   ;Allocation info for local variables in function 'GetADC'
01F8            999   ;------------------------------------------------------------
01F8           1000   ;channel                   Allocated to registers r2 r3 
01F8           1001   ;------------------------------------------------------------
01F8           1002   ;        C:\Users\Leighton Carmichael\Documents\GitStuff\ElectroMagCar\Reciever.c:320: double GetADC (int channel)
01F8           1003   ;        -----------------------------------------
01F8           1004   ;         function GetADC
01F8           1005   ;        -----------------------------------------
01F8           1006   _GetADC:
01F8 AA82      1007            mov     r2,dpl
01FA AB83      1008            mov     r3,dph
01FC           1009   ;        C:\Users\Leighton Carmichael\Documents\GitStuff\ElectroMagCar\Reciever.c:322: if ( channel ==1 )
01FC BA01A0    1010            cjne    r2,#0x01,L020002?
01FF BB00A0    1011            cjne    r3,#0x00,L020002?
0202           1012   ;        C:\Users\Leighton Carmichael\Documents\GitStuff\ElectroMagCar\Reciever.c:323: AMX0P=LQFP32_MUX_P2_4;
0202 75BB0C    1013            mov     _AMX0P,#0x0C
0205           1014   L020002?:
0205           1015   ;        C:\Users\Leighton Carmichael\Documents\GitStuff\ElectroMagCar\Reciever.c:324: if (channel == 0)
0205 EA        1016            mov     a,r2
0206 4B        1017            orl     a,r3
0207 7001      1018            jnz     L020004?
0209           1019   ;        C:\Users\Leighton Carmichael\Documents\GitStuff\ElectroMagCar\Reciever.c:325: AMX0P=LQFP32_MUX_P2_3;
0209 75BB0B    1020            mov     _AMX0P,#0x0B
020C           1021   L020004?:
020C           1022   ;        C:\Users\Leighton Carmichael\Documents\GitStuff\ElectroMagCar\Reciever.c:327: AD0BUSY = 1;
020C D2EC      1023            setb    _AD0BUSY
020E           1024   ;        C:\Users\Leighton Carmichael\Documents\GitStuff\ElectroMagCar\Reciever.c:328: while(AD0BUSY);
020E           1025   L020005?:
020E 20EC20    1026            jb      _AD0BUSY,L020005?
0211           1027   ;        C:\Users\Leighton Carmichael\Documents\GitStuff\ElectroMagCar\Reciever.c:330: return (((ADC0L+(ADC0H*0x100))*VDD)/1023.0);
0211 AABD      1028            mov     r2,_ADC0L
0213 7B00      1029            mov     r3,#0x00
0215 ADBE      1030            mov     r5,_ADC0H
0217 7C00      1031            mov     r4,#0x00
0219 EC        1032            mov     a,r4
021A 2A        1033            add     a,r2
021B F582      1034            mov     dpl,a
021D ED        1035            mov     a,r5
021E 3B        1036            addc    a,r3
021F F583      1037            mov     dph,a
0221 120100    1038            lcall   ___sint2fs
0224 AA82      1039            mov     r2,dpl
0226 AB83      1040            mov     r3,dph
0228 ACF0      1041            mov     r4,b
022A FD        1042            mov     r5,a
022B C002      1043            push    ar2
022D C003      1044            push    ar3
022F C004      1045            push    ar4
0231 C005      1046            push    ar5
0233 90CCCD    1047            mov     dptr,#0xCCCD
0236 75F054    1048            mov     b,#0x54
0239 7440      1049            mov     a,#0x40
023B 120100    1050            lcall   ___fsmul
023E AA82      1051            mov     r2,dpl
0240 AB83      1052            mov     r3,dph
0242 ACF0      1053            mov     r4,b
0244 FD        1054            mov     r5,a
0245 E581      1055            mov     a,sp
0247 24FC      1056            add     a,#0xfc
0249 F581      1057            mov     sp,a
024B E4        1058            clr     a
024C C0E0      1059            push    acc
024E 74C0      1060            mov     a,#0xC0
0250 C0E0      1061            push    acc
0252 747F      1062            mov     a,#0x7F
0254 C0E0      1063            push    acc
0256 7444      1064            mov     a,#0x44
0258 C0E0      1065            push    acc
025A 8A82      1066            mov     dpl,r2
025C 8B83      1067            mov     dph,r3
025E 8CF0      1068            mov     b,r4
0260 ED        1069            mov     a,r5
0261 120100    1070            lcall   ___fsdiv
0264 AA82      1071            mov     r2,dpl
0266 AB83      1072            mov     r3,dph
0268 ACF0      1073            mov     r4,b
026A FD        1074            mov     r5,a
026B E581      1075            mov     a,sp
026D 24FC      1076            add     a,#0xfc
026F F581      1077            mov     sp,a
0271 8A82      1078            mov     dpl,r2
0273 8B83      1079            mov     dph,r3
0275 8CF0      1080            mov     b,r4
0277 ED        1081            mov     a,r5
0278 22        1082            ret
0279           1083   ;------------------------------------------------------------
0279           1084   ;Allocation info for local variables in function 'Read_Distance'
0279           1085   ;------------------------------------------------------------
0279           1086   ;num                       Allocated to registers r2 r3 
0279           1087   ;v                         Allocated to registers r4 r5 r6 r7 
0279           1088   ;------------------------------------------------------------
0279           1089   ;        C:\Users\Leighton Carmichael\Documents\GitStuff\ElectroMagCar\Reciever.c:350: double Read_Distance(int num){
0279           1090   ;        -----------------------------------------
0279           1091   ;         function Read_Distance
0279           1092   ;        -----------------------------------------
0279           1093   _Read_Distance:
0279 AA82      1094            mov     r2,dpl
027B AB83      1095            mov     r3,dph
027D           1096   ;        C:\Users\Leighton Carmichael\Documents\GitStuff\ElectroMagCar\Reciever.c:351: double v = 0;
027D 7C00      1097            mov     r4,#0x00
027F           1098   ;        C:\Users\Leighton Carmichael\Documents\GitStuff\ElectroMagCar\Reciever.c:354: if (num == 0){
027F E4        1099            clr     a
0280 FD        1100            mov     r5,a
0281 FE        1101            mov     r6,a
0282 FF        1102            mov     r7,a
0283 EA        1103            mov     a,r2
0284 4B        1104            orl     a,r3
0285 7001      1105            jnz     L021002?
0287           1106   ;        C:\Users\Leighton Carmichael\Documents\GitStuff\ElectroMagCar\Reciever.c:355: v = GetADC(0);
0287 900000    1107            mov     dptr,#0x0000
028A C002      1108            push    ar2
028C C003      1109            push    ar3
028E 120100    1110            lcall   _GetADC
0291 AC82      1111            mov     r4,dpl
0293 AD83      1112            mov     r5,dph
0295 AEF0      1113            mov     r6,b
0297 FF        1114            mov     r7,a
0298 D003      1115            pop     ar3
029A D002      1116            pop     ar2
029C           1117   L021002?:
029C           1118   ;        C:\Users\Leighton Carmichael\Documents\GitStuff\ElectroMagCar\Reciever.c:357: if (num == 1){
029C BA01A0    1119            cjne    r2,#0x01,L021004?
029F BB00A0    1120            cjne    r3,#0x00,L021004?
02A2           1121   ;        C:\Users\Leighton Carmichael\Documents\GitStuff\ElectroMagCar\Reciever.c:358: v = GetADC(1);}
02A2 900001    1122            mov     dptr,#0x0001
02A5 120100    1123            lcall   _GetADC
02A8 AC82      1124            mov     r4,dpl
02AA AD83      1125            mov     r5,dph
02AC AEF0      1126            mov     r6,b
02AE FF        1127            mov     r7,a
02AF           1128   L021004?:
02AF           1129   ;        C:\Users\Leighton Carmichael\Documents\GitStuff\ElectroMagCar\Reciever.c:360: return v;
02AF 8C82      1130            mov     dpl,r4
02B1 8D83      1131            mov     dph,r5
02B3 8EF0      1132            mov     b,r6
02B5 EF        1133            mov     a,r7
02B6 22        1134            ret
02B7           1135   ;------------------------------------------------------------
02B7           1136   ;Allocation info for local variables in function 'Follow'
02B7           1137   ;------------------------------------------------------------
02B7           1138   ;LeftD                     Allocated to registers r2 r3 r4 r5 
02B7           1139   ;RightD                    Allocated with name '_Follow_RightD_1_70'
02B7           1140   ;------------------------------------------------------------
02B7           1141   ;        C:\Users\Leighton Carmichael\Documents\GitStuff\ElectroMagCar\Reciever.c:362: void Follow(void)
02B7           1142   ;        -----------------------------------------
02B7           1143   ;         function Follow
02B7           1144   ;        -----------------------------------------
02B7           1145   _Follow:
02B7           1146   ;        C:\Users\Leighton Carmichael\Documents\GitStuff\ElectroMagCar\Reciever.c:367: LeftD  = Read_Distance(0);
02B7 900000    1147            mov     dptr,#0x0000
02BA 120100    1148            lcall   _Read_Distance
02BD AA82      1149            mov     r2,dpl
02BF AB83      1150            mov     r3,dph
02C1 ACF0      1151            mov     r4,b
02C3 FD        1152            mov     r5,a
02C4           1153   ;        C:\Users\Leighton Carmichael\Documents\GitStuff\ElectroMagCar\Reciever.c:368: RightD = Read_Distance(1);
02C4 900001    1154            mov     dptr,#0x0001
02C7 C002      1155            push    ar2
02C9 C003      1156            push    ar3
02CB C004      1157            push    ar4
02CD C005      1158            push    ar5
02CF 120100    1159            lcall   _Read_Distance
02D2 858260    1160            mov     _Follow_RightD_1_70,dpl
02D5 858361    1161            mov     (_Follow_RightD_1_70 + 1),dph
02D8 85F062    1162            mov     (_Follow_RightD_1_70 + 2),b
02DB F563      1163            mov     (_Follow_RightD_1_70 + 3),a
02DD           1164   ;        C:\Users\Leighton Carmichael\Documents\GitStuff\ElectroMagCar\Reciever.c:370: if (LeftD > Dist && RightD > Dist){ // Move Forward
02DD 859082    1165            mov     dpl,_Dist
02E0 859183    1166            mov     dph,(_Dist + 1)
02E3 120100    1167            lcall   ___uint2fs
02E6 AE82      1168            mov     r6,dpl
02E8 AF83      1169            mov     r7,dph
02EA A8F0      1170            mov     r0,b
02EC F9        1171            mov     r1,a
02ED D005      1172            pop     ar5
02EF D004      1173            pop     ar4
02F1 D003      1174            pop     ar3
02F3 D002      1175            pop     ar2
02F5 C002      1176            push    ar2
02F7 C003      1177            push    ar3
02F9 C004      1178            push    ar4
02FB C005      1179            push    ar5
02FD C006      1180            push    ar6
02FF C007      1181            push    ar7
0301 C000      1182            push    ar0
0303 C001      1183            push    ar1
0305 8A82      1184            mov     dpl,r2
0307 8B83      1185            mov     dph,r3
0309 8CF0      1186            mov     b,r4
030B ED        1187            mov     a,r5
030C 120100    1188            lcall   ___fsgt
030F AE82      1189            mov     r6,dpl
0311 E581      1190            mov     a,sp
0313 24FC      1191            add     a,#0xfc
0315 F581      1192            mov     sp,a
0317 D005      1193            pop     ar5
0319 D004      1194            pop     ar4
031B D003      1195            pop     ar3
031D D002      1196            pop     ar2
031F EE        1197            mov     a,r6
0320 6001      1198            jz      L022002?
0322 859082    1199            mov     dpl,_Dist
0325 859183    1200            mov     dph,(_Dist + 1)
0328 C002      1201            push    ar2
032A C003      1202            push    ar3
032C C004      1203            push    ar4
032E C005      1204            push    ar5
0330 120100    1205            lcall   ___uint2fs
0333 AE82      1206            mov     r6,dpl
0335 AF83      1207            mov     r7,dph
0337 A8F0      1208            mov     r0,b
0339 F9        1209            mov     r1,a
033A C006      1210            push    ar6
033C C007      1211            push    ar7
033E C000      1212            push    ar0
0340 C001      1213            push    ar1
0342 856082    1214            mov     dpl,_Follow_RightD_1_70
0345 856183    1215            mov     dph,(_Follow_RightD_1_70 + 1)
0348 8562F0    1216            mov     b,(_Follow_RightD_1_70 + 2)
034B E563      1217            mov     a,(_Follow_RightD_1_70 + 3)
034D 120100    1218            lcall   ___fsgt
0350 AE82      1219            mov     r6,dpl
0352 E581      1220            mov     a,sp
0354 24FC      1221            add     a,#0xfc
0356 F581      1222            mov     sp,a
0358 D005      1223            pop     ar5
035A D004      1224            pop     ar4
035C D003      1225            pop     ar3
035E D002      1226            pop     ar2
0360 EE        1227            mov     a,r6
0361 6001      1228            jz      L022002?
0363           1229   ;        C:\Users\Leighton Carmichael\Documents\GitStuff\ElectroMagCar\Reciever.c:371: M1P1 = HIGH;
0363 D2A7      1230            setb    _P2_7
0365           1231   ;        C:\Users\Leighton Carmichael\Documents\GitStuff\ElectroMagCar\Reciever.c:372: M2P1 = HIGH;
0365 D2A4      1232            setb    _P2_4
0367           1233   ;        C:\Users\Leighton Carmichael\Documents\GitStuff\ElectroMagCar\Reciever.c:373: M1P2 = LOW;
0367 C2A5      1234            clr     _P2_5
0369           1235   ;        C:\Users\Leighton Carmichael\Documents\GitStuff\ElectroMagCar\Reciever.c:374: M2P2 = LOW;}
0369 C2A3      1236            clr     _P2_3
036B           1237   L022002?:
036B           1238   ;        C:\Users\Leighton Carmichael\Documents\GitStuff\ElectroMagCar\Reciever.c:376: if (LeftD < Dist && RightD < Dist){ // Backwards
036B 859082    1239            mov     dpl,_Dist
036E 859183    1240            mov     dph,(_Dist + 1)
0371 C002      1241            push    ar2
0373 C003      1242            push    ar3
0375 C004      1243            push    ar4
0377 C005      1244            push    ar5
0379 120100    1245            lcall   ___uint2fs
037C AE82      1246            mov     r6,dpl
037E AF83      1247            mov     r7,dph
0380 A8F0      1248            mov     r0,b
0382 F9        1249            mov     r1,a
0383 D005      1250            pop     ar5
0385 D004      1251            pop     ar4
0387 D003      1252            pop     ar3
0389 D002      1253            pop     ar2
038B C006      1254            push    ar6
038D C007      1255            push    ar7
038F C000      1256            push    ar0
0391 C001      1257            push    ar1
0393 8A82      1258            mov     dpl,r2
0395 8B83      1259            mov     dph,r3
0397 8CF0      1260            mov     b,r4
0399 ED        1261            mov     a,r5
039A 120100    1262            lcall   ___fslt
039D AA82      1263            mov     r2,dpl
039F E581      1264            mov     a,sp
03A1 24FC      1265            add     a,#0xfc
03A3 F581      1266            mov     sp,a
03A5 EA        1267            mov     a,r2
03A6 6001      1268            jz      L022005?
03A8 859082    1269            mov     dpl,_Dist
03AB 859183    1270            mov     dph,(_Dist + 1)
03AE 120100    1271            lcall   ___uint2fs
03B1 AA82      1272            mov     r2,dpl
03B3 AB83      1273            mov     r3,dph
03B5 ACF0      1274            mov     r4,b
03B7 FD        1275            mov     r5,a
03B8 C002      1276            push    ar2
03BA C003      1277            push    ar3
03BC C004      1278            push    ar4
03BE C005      1279            push    ar5
03C0 856082    1280            mov     dpl,_Follow_RightD_1_70
03C3 856183    1281            mov     dph,(_Follow_RightD_1_70 + 1)
03C6 8562F0    1282            mov     b,(_Follow_RightD_1_70 + 2)
03C9 E563      1283            mov     a,(_Follow_RightD_1_70 + 3)
03CB 120100    1284            lcall   ___fslt
03CE AA82      1285            mov     r2,dpl
03D0 E581      1286            mov     a,sp
03D2 24FC      1287            add     a,#0xfc
03D4 F581      1288            mov     sp,a
03D6 EA        1289            mov     a,r2
03D7 6001      1290            jz      L022005?
03D9           1291   ;        C:\Users\Leighton Carmichael\Documents\GitStuff\ElectroMagCar\Reciever.c:377: M1P1 = LOW;
03D9 C2A7      1292            clr     _P2_7
03DB           1293   ;        C:\Users\Leighton Carmichael\Documents\GitStuff\ElectroMagCar\Reciever.c:378: M2P1 = LOW;
03DB C2A4      1294            clr     _P2_4
03DD           1295   ;        C:\Users\Leighton Carmichael\Documents\GitStuff\ElectroMagCar\Reciever.c:379: M1P2 = HIGH;
03DD D2A5      1296            setb    _P2_5
03DF           1297   ;        C:\Users\Leighton Carmichael\Documents\GitStuff\ElectroMagCar\Reciever.c:380: M2P2 = HIGH;}
03DF D2A3      1298            setb    _P2_3
03E1 22        1299            ret
03E2           1300   L022005?:
03E2           1301   ;        C:\Users\Leighton Carmichael\Documents\GitStuff\ElectroMagCar\Reciever.c:383: Clear_Pins();
03E2           1302   ;        C:\Users\Leighton Carmichael\Documents\GitStuff\ElectroMagCar\Reciever.c:385: return;
03E2 020100    1303            ljmp    _Clear_Pins
03E5           1304   ;------------------------------------------------------------
03E5           1305   ;Allocation info for local variables in function 'main'
03E5           1306   ;------------------------------------------------------------
03E5           1307   ;------------------------------------------------------------
03E5           1308   ;        C:\Users\Leighton Carmichael\Documents\GitStuff\ElectroMagCar\Reciever.c:387: void main (void) {
03E5           1309   ;        -----------------------------------------
03E5           1310   ;         function main
03E5           1311   ;        -----------------------------------------
03E5           1312   _main:
03E5           1313   ;        C:\Users\Leighton Carmichael\Documents\GitStuff\ElectroMagCar\Reciever.c:389: while(1){
03E5           1314   L023013?:
03E5           1315   ;        C:\Users\Leighton Carmichael\Documents\GitStuff\ElectroMagCar\Reciever.c:390: command = rx_byte();  // reads the command being sent from the transmitter
03E5 120100    1316            lcall   _rx_byte
03E8 AA82      1317            mov     r2,dpl
03EA 8AD0      1318            mov     _command,r2
03EC 75D100    1319            mov     (_command + 1),#0x00
03EF           1320   ;        C:\Users\Leighton Carmichael\Documents\GitStuff\ElectroMagCar\Reciever.c:392: if (command == 8){        
03EF 7408      1321            mov     a,#0x08
03F1 B5D060    1322            cjne    a,_command,L023023?
03F4 E4        1323            clr     a
03F5 B5D160    1324            cjne    a,(_command + 1),L023023?
03F8 8001      1325            sjmp    L023024?
03FA           1326   L023023?:
03FA 8001      1327            sjmp    L023002?
03FC           1328   L023024?:
03FC           1329   ;        C:\Users\Leighton Carmichael\Documents\GitStuff\ElectroMagCar\Reciever.c:393: Follow();}
03FC 120100    1330            lcall   _Follow
03FF           1331   L023002?:
03FF           1332   ;        C:\Users\Leighton Carmichael\Documents\GitStuff\ElectroMagCar\Reciever.c:395: if (command == 2){
03FF 7402      1333            mov     a,#0x02
0401 B5D020    1334            cjne    a,_command,L023025?
0404 E4        1335            clr     a
0405 B5D120    1336            cjne    a,(_command + 1),L023025?
0408 8001      1337            sjmp    L023026?
040A           1338   L023025?:
040A 8001      1339            sjmp    L023004?
040C           1340   L023026?:
040C           1341   ;        C:\Users\Leighton Carmichael\Documents\GitStuff\ElectroMagCar\Reciever.c:396: Forward();}
040C 120100    1342            lcall   _Forward
040F           1343   L023004?:
040F           1344   ;        C:\Users\Leighton Carmichael\Documents\GitStuff\ElectroMagCar\Reciever.c:398: if (command == 3){
040F 7403      1345            mov     a,#0x03
0411 B5D0E8    1346            cjne    a,_command,L023027?
0414 E4        1347            clr     a
0415 B5D1E8    1348            cjne    a,(_command + 1),L023027?
0418 8001      1349            sjmp    L023028?
041A           1350   L023027?:
041A 8001      1351            sjmp    L023006?
041C           1352   L023028?:
041C           1353   ;        C:\Users\Leighton Carmichael\Documents\GitStuff\ElectroMagCar\Reciever.c:399: Backwards();}
041C 120100    1354            lcall   _Backwards
041F           1355   L023006?:
041F           1356   ;        C:\Users\Leighton Carmichael\Documents\GitStuff\ElectroMagCar\Reciever.c:401: if (command == 4){
041F 7404      1357            mov     a,#0x04
0421 B5D0A8    1358            cjne    a,_command,L023029?
0424 E4        1359            clr     a
0425 B5D1A8    1360            cjne    a,(_command + 1),L023029?
0428 8001      1361            sjmp    L023030?
042A           1362   L023029?:
042A 8001      1363            sjmp    L023008?
042C           1364   L023030?:
042C           1365   ;        C:\Users\Leighton Carmichael\Documents\GitStuff\ElectroMagCar\Reciever.c:402: Left();}
042C 120100    1366            lcall   _Left
042F           1367   L023008?:
042F           1368   ;        C:\Users\Leighton Carmichael\Documents\GitStuff\ElectroMagCar\Reciever.c:404: if (command == 5){
042F 7405      1369            mov     a,#0x05
0431 B5D068    1370            cjne    a,_command,L023031?
0434 E4        1371            clr     a
0435 B5D168    1372            cjne    a,(_command + 1),L023031?
0438 8001      1373            sjmp    L023032?
043A           1374   L023031?:
043A 8001      1375            sjmp    L023010?
043C           1376   L023032?:
043C           1377   ;        C:\Users\Leighton Carmichael\Documents\GitStuff\ElectroMagCar\Reciever.c:405: Right();}
043C 120100    1378            lcall   _Right
043F 8001      1379            sjmp    L023013?
0441           1380   L023010?:
0441           1381   ;        C:\Users\Leighton Carmichael\Documents\GitStuff\ElectroMagCar\Reciever.c:407: Clear_Pins();
0441 120100    1382            lcall   _Clear_Pins
0444 8001      1383            sjmp    L023013?
0446           1384            rseg R_CSEG
0446           1385   
0000           1386            rseg R_XINIT
0000           1387   
0000           1388            rseg R_CONST
0000           1389   
0003           1390            CSEG
0003           1391   
0003           1392   end
